; ModuleID = 'source-C-CXX/56/1805.c'
source_filename = "source-C-CXX/56/1805.c"
target datalayout = "e-m:e-p270:32:32-p271:32:32-p272:64:64-i64:64-f80:128-n8:16:32:64-S128"
target triple = "x86_64-pc-linux-gnu"

@.str = private unnamed_addr constant [3 x i8] c"%d\00", align 1
@.str.1 = private unnamed_addr constant [3 x i8] c"%s\00", align 1
@.str.2 = private unnamed_addr constant [3 x i8] c"er\00", align 1
@.str.3 = private unnamed_addr constant [3 x i8] c"ly\00", align 1
@.str.4 = private unnamed_addr constant [4 x i8] c"ing\00", align 1

; Function Attrs: nofree nounwind sspstrong uwtable
define dso_local i32 @main() local_unnamed_addr #0 {
  %1 = alloca i32, align 4
  %2 = alloca [100 x i8], align 16
  %3 = bitcast i32* %1 to i8*
  call void @llvm.lifetime.start.p0i8(i64 4, i8* nonnull %3) #5
  %4 = getelementptr inbounds [100 x i8], [100 x i8]* %2, i64 0, i64 0
  call void @llvm.lifetime.start.p0i8(i64 100, i8* nonnull %4) #5
  %5 = call i32 (i8*, ...) @__isoc99_scanf(i8* getelementptr inbounds ([3 x i8], [3 x i8]* @.str, i64 0, i64 0), i32* nonnull %1)
  %6 = load i32, i32* %1, align 4, !tbaa !5
  %7 = icmp sgt i32 %6, 0
  br i1 %7, label %8, label %34

8:                                                ; preds = %0, %29
  %9 = phi i32 [ %31, %29 ], [ 0, %0 ]
  %10 = call i32 (i8*, ...) @__isoc99_scanf(i8* getelementptr inbounds ([3 x i8], [3 x i8]* @.str.1, i64 0, i64 0), i8* nonnull %4)
  %11 = call i64 @strlen(i8* noundef nonnull %4) #6
  %12 = shl i64 %11, 32
  %13 = add i64 %12, -8589934592
  %14 = ashr exact i64 %13, 32
  %15 = getelementptr inbounds [100 x i8], [100 x i8]* %2, i64 0, i64 %14
  %16 = call i32 @strcmp(i8* noundef nonnull %15, i8* noundef nonnull dereferenceable(3) getelementptr inbounds ([3 x i8], [3 x i8]* @.str.2, i64 0, i64 0)) #6
  %17 = icmp eq i32 %16, 0
  br i1 %17, label %21, label %18

18:                                               ; preds = %8
  %19 = call i32 @strcmp(i8* noundef nonnull %15, i8* noundef nonnull dereferenceable(3) getelementptr inbounds ([3 x i8], [3 x i8]* @.str.3, i64 0, i64 0)) #6
  %20 = icmp eq i32 %19, 0
  br i1 %20, label %21, label %22

21:                                               ; preds = %18, %8
  store i8 0, i8* %15, align 1, !tbaa !9
  br label %22

22:                                               ; preds = %21, %18
  %23 = add i64 %12, -12884901888
  %24 = ashr exact i64 %23, 32
  %25 = getelementptr inbounds [100 x i8], [100 x i8]* %2, i64 0, i64 %24
  %26 = call i32 @strcmp(i8* noundef nonnull %25, i8* noundef nonnull dereferenceable(4) getelementptr inbounds ([4 x i8], [4 x i8]* @.str.4, i64 0, i64 0)) #6
  %27 = icmp eq i32 %26, 0
  br i1 %27, label %28, label %29

28:                                               ; preds = %22
  store i8 0, i8* %25, align 1, !tbaa !9
  br label %29

29:                                               ; preds = %28, %22
  %30 = call i32 @puts(i8* nonnull %4)
  %31 = add nuw nsw i32 %9, 1
  %32 = load i32, i32* %1, align 4, !tbaa !5
  %33 = icmp slt i32 %31, %32
  br i1 %33, label %8, label %34, !llvm.loop !10

34:                                               ; preds = %29, %0
  call void @llvm.lifetime.end.p0i8(i64 100, i8* nonnull %4) #5
  call void @llvm.lifetime.end.p0i8(i64 4, i8* nonnull %3) #5
  ret i32 0
}

; Function Attrs: argmemonly mustprogress nofree nosync nounwind willreturn
declare void @llvm.lifetime.start.p0i8(i64 immarg, i8* nocapture) #1

; Function Attrs: nofree nounwind
declare noundef i32 @__isoc99_scanf(i8* nocapture noundef readonly, ...) local_unnamed_addr #2

; Function Attrs: argmemonly mustprogress nofree nounwind readonly willreturn
declare i64 @strlen(i8* nocapture) local_unnamed_addr #3

; Function Attrs: argmemonly mustprogress nofree nounwind readonly willreturn
declare i32 @strcmp(i8* nocapture, i8* nocapture) local_unnamed_addr #3

; Function Attrs: argmemonly mustprogress nofree nosync nounwind willreturn
declare void @llvm.lifetime.end.p0i8(i64 immarg, i8* nocapture) #1

; Function Attrs: nofree nounwind
declare noundef i32 @puts(i8* nocapture noundef readonly) local_unnamed_addr #4


!llvm.module.flags = !{!0, !1, !2, !3}
!llvm.ident = !{!4}

!0 = !{i32 1, !"wchar_size", i32 4}
!1 = !{i32 7, !"PIC Level", i32 2}
!2 = !{i32 7, !"PIE Level", i32 2}
!3 = !{i32 7, !"uwtable", i32 1}
!4 = !{!"clang version 13.0.0"}
!5 = !{!6, !6, i64 0}
!6 = !{!"int", !7, i64 0}
!7 = !{!"omnipotent char", !8, i64 0}
!8 = !{!"Simple C/C++ TBAA"}
!9 = !{!7, !7, i64 0}
!10 = distinct !{!10, !11}
!11 = !{!"llvm.loop.mustprogress"}
